target datalayout = "e-m:e-p270:32:32-p271:32:32-p272:64:64-i64:64-i128:128-f80:128-n8:16:32:64-S128"
target triple = "x86_64-pc-linux-gnu"

%struct.GISTBuildState = type { ptr, ptr, ptr, i64, i32, i64, i64, ptr, ptr, ptr, i32, ptr }
%struct.PageHeaderData = type { %struct.PageXLogRecPtr, i16, i16, i16, i16, i16, i16, i32, [0 x %struct.ItemIdData] }
%struct.PageXLogRecPtr = type { i32, i32 }
%struct.ItemIdData = type { i32 }
%struct.IndexTupleData = type { %struct.ItemPointerData, i16 }
%struct.ItemPointerData = type { %struct.BlockIdData, i16 }
%struct.BlockIdData = type { i16, i16 }
%struct.GISTBuildBuffers = type { ptr, ptr, i64, ptr, i32, i32, ptr, ptr, i32, i32, ptr, i32, ptr, i32, i32, i32 }
%struct.GISTNodeBuffer = type { i32, i32, i32, ptr, i8, i8, i32 }
%struct.ParentMapEntry = type { i32, i32 }

@LocalBufferBlockPointers = external global ptr, align 8
@BufferBlocks = external global ptr, align 8
@InterruptPending = external global i32, align 4

; Function Attrs: inlinehint nounwind uwtable
define internal i32 @BlockIdGetBlockNumber(ptr noundef %0) #4 {
  %2 = alloca ptr, align 8
  store ptr %0, ptr %2, align 8
  %3 = load ptr, ptr %2, align 8
  %4 = getelementptr inbounds nuw %struct.BlockIdData, ptr %3, i32 0, i32 0
  %5 = load i16, ptr %4, align 2
  %6 = zext i16 %5 to i32
  %7 = shl i32 %6, 16
  %8 = load ptr, ptr %2, align 8
  %9 = getelementptr inbounds nuw %struct.BlockIdData, ptr %8, i32 0, i32 1
  %10 = load i16, ptr %9, align 2
  %11 = zext i16 %10 to i32
  %12 = or i32 %7, %11
  ret i32 %12
}

; Function Attrs: inlinehint nounwind uwtable
define internal i32 @ItemPointerGetBlockNumberNoCheck(ptr noundef %0) #4 {
  %2 = alloca ptr, align 8
  store ptr %0, ptr %2, align 8
  %3 = load ptr, ptr %2, align 8
  %4 = getelementptr inbounds nuw %struct.ItemPointerData, ptr %3, i32 0, i32 0
  %5 = call i32 @BlockIdGetBlockNumber(ptr noundef %4)
  ret i32 %5
}

; Function Attrs: inlinehint nounwind uwtable
define internal ptr @BufferGetBlock(i32 noundef %0) #4 {
  %2 = alloca ptr, align 8
  %3 = alloca i32, align 4
  store i32 %0, ptr %3, align 4
  %4 = load i32, ptr %3, align 4
  %5 = icmp slt i32 %4, 0
  br i1 %5, label %6, label %14

6:                                                ; preds = %1
  %7 = load ptr, ptr @LocalBufferBlockPointers, align 8
  %8 = load i32, ptr %3, align 4
  %9 = sub i32 0, %8
  %10 = sub i32 %9, 1
  %11 = sext i32 %10 to i64
  %12 = getelementptr inbounds ptr, ptr %7, i64 %11
  %13 = load ptr, ptr %12, align 8
  store ptr %13, ptr %2, align 8
  br label %21

14:                                               ; preds = %1
  %15 = load ptr, ptr @BufferBlocks, align 8
  %16 = load i32, ptr %3, align 4
  %17 = sub i32 %16, 1
  %18 = sext i32 %17 to i64
  %19 = mul i64 %18, 8192
  %20 = getelementptr inbounds nuw i8, ptr %15, i64 %19
  store ptr %20, ptr %2, align 8
  br label %21

21:                                               ; preds = %14, %6
  %22 = load ptr, ptr %2, align 8
  ret ptr %22
}

; Function Attrs: nounwind uwtable
define internal void @gistMemorizeParent(ptr noundef %0, i32 noundef %1, i32 noundef %2) #0 {
  %4 = alloca ptr, align 8
  %5 = alloca i32, align 4
  %6 = alloca i32, align 4
  %7 = alloca ptr, align 8
  %8 = alloca i8, align 1
  store ptr %0, ptr %4, align 8
  store i32 %1, ptr %5, align 4
  store i32 %2, ptr %6, align 4
  call void @llvm.lifetime.start.p0(i64 8, ptr %7) #10
  call void @llvm.lifetime.start.p0(i64 1, ptr %8) #10
  %9 = load ptr, ptr %4, align 8
  %10 = getelementptr inbounds nuw %struct.GISTBuildState, ptr %9, i32 0, i32 8
  %11 = load ptr, ptr %10, align 8
  %12 = call ptr @hash_search(ptr noundef %11, ptr noundef %5, i32 noundef 1, ptr noundef %8)
  store ptr %12, ptr %7, align 8
  %13 = load i32, ptr %6, align 4
  %14 = load ptr, ptr %7, align 8
  %15 = getelementptr inbounds nuw %struct.ParentMapEntry, ptr %14, i32 0, i32 1
  store i32 %13, ptr %15, align 4
  call void @llvm.lifetime.end.p0(i64 1, ptr %8) #10
  call void @llvm.lifetime.end.p0(i64 8, ptr %7) #10
  ret void
}

; Function Attrs: inlinehint nounwind uwtable
define internal i32 @ItemPointerGetBlockNumber(ptr noundef %0) #4 {
  %2 = alloca ptr, align 8
  store ptr %0, ptr %2, align 8
  %3 = load ptr, ptr %2, align 8
  %4 = call i32 @ItemPointerGetBlockNumberNoCheck(ptr noundef %3)
  ret i32 %4
}

; Function Attrs: inlinehint nounwind uwtable
define internal ptr @PageGetItem(ptr noundef %0, ptr noundef %1) #4 {
  %3 = alloca ptr, align 8
  %4 = alloca ptr, align 8
  store ptr %0, ptr %3, align 8
  store ptr %1, ptr %4, align 8
  %5 = load ptr, ptr %3, align 8
  %6 = load ptr, ptr %4, align 8
  %7 = load i32, ptr %6, align 4
  %8 = and i32 %7, 32767
  %9 = sext i32 %8 to i64
  %10 = getelementptr inbounds i8, ptr %5, i64 %9
  ret ptr %10
}

; Function Attrs: inlinehint nounwind uwtable
define internal ptr @PageGetItemId(ptr noundef %0, i16 noundef zeroext %1) #4 {
  %3 = alloca ptr, align 8
  %4 = alloca i16, align 2
  store ptr %0, ptr %3, align 8
  store i16 %1, ptr %4, align 2
  %5 = load ptr, ptr %3, align 8
  %6 = getelementptr inbounds nuw %struct.PageHeaderData, ptr %5, i32 0, i32 8
  %7 = load i16, ptr %4, align 2
  %8 = zext i16 %7 to i32
  %9 = sub i32 %8, 1
  %10 = sext i32 %9 to i64
  %11 = getelementptr inbounds [0 x %struct.ItemIdData], ptr %6, i64 0, i64 %10
  ret ptr %11
}

; Function Attrs: inlinehint nounwind uwtable
define internal ptr @BufferGetPage(i32 noundef %0) #4 {
  %2 = alloca i32, align 4
  store i32 %0, ptr %2, align 4
  %3 = load i32, ptr %2, align 4
  %4 = call ptr @BufferGetBlock(i32 noundef %3)
  ret ptr %4
}

; Function Attrs: nounwind uwtable
define internal zeroext i1 @gistProcessItup(ptr noundef %0, ptr noundef %1, i32 noundef %2, i32 noundef %3) #0 {
  %5 = alloca ptr, align 8
  %6 = alloca ptr, align 8
  %7 = alloca i32, align 4
  %8 = alloca i32, align 4
  %9 = alloca ptr, align 8
  %10 = alloca ptr, align 8
  %11 = alloca ptr, align 8
  %12 = alloca i32, align 4
  %13 = alloca i32, align 4
  %14 = alloca i8, align 1
  %15 = alloca i32, align 4
  %16 = alloca i32, align 4
  %17 = alloca i16, align 2
  %18 = alloca i32, align 4
  %19 = alloca ptr, align 8
  %20 = alloca ptr, align 8
  %21 = alloca ptr, align 8
  %22 = alloca ptr, align 8
  %23 = alloca i16, align 2
  %24 = alloca i32, align 4
  %25 = alloca ptr, align 8
  store ptr %0, ptr %5, align 8
  store ptr %1, ptr %6, align 8
  store i32 %2, ptr %7, align 4
  store i32 %3, ptr %8, align 4
  call void @llvm.lifetime.start.p0(i64 8, ptr %9) #10
  %26 = load ptr, ptr %5, align 8
  %27 = getelementptr inbounds nuw %struct.GISTBuildState, ptr %26, i32 0, i32 2
  %28 = load ptr, ptr %27, align 8
  store ptr %28, ptr %9, align 8
  call void @llvm.lifetime.start.p0(i64 8, ptr %10) #10
  %29 = load ptr, ptr %5, align 8
  %30 = getelementptr inbounds nuw %struct.GISTBuildState, ptr %29, i32 0, i32 7
  %31 = load ptr, ptr %30, align 8
  store ptr %31, ptr %10, align 8
  call void @llvm.lifetime.start.p0(i64 8, ptr %11) #10
  %32 = load ptr, ptr %5, align 8
  %33 = getelementptr inbounds nuw %struct.GISTBuildState, ptr %32, i32 0, i32 0
  %34 = load ptr, ptr %33, align 8
  store ptr %34, ptr %11, align 8
  call void @llvm.lifetime.start.p0(i64 4, ptr %12) #10
  call void @llvm.lifetime.start.p0(i64 4, ptr %13) #10
  call void @llvm.lifetime.start.p0(i64 1, ptr %14) #10
  store i8 0, ptr %14, align 1
  call void @llvm.lifetime.start.p0(i64 4, ptr %15) #10
  call void @llvm.lifetime.start.p0(i64 4, ptr %16) #10
  call void @llvm.lifetime.start.p0(i64 2, ptr %17) #10
  store i16 0, ptr %17, align 2
  call void @llvm.lifetime.start.p0(i64 4, ptr %18) #10
  store i32 -1, ptr %18, align 4
  br label %35

35:                                               ; preds = %4
  %36 = load volatile i32, ptr @InterruptPending, align 4
  %37 = icmp ne i32 %36, 0
  %38 = zext i1 %37 to i32
  %39 = sext i32 %38 to i64
  %40 = call i64 @llvm.expect.i64(i64 %39, i64 0)
  %41 = icmp ne i64 %40, 0
  br i1 %41, label %42, label %43

42:                                               ; preds = %35
  call void @ProcessInterrupts()
  br label %43

43:                                               ; preds = %42, %35
  br label %44

44:                                               ; preds = %43
  br label %45

45:                                               ; preds = %44
  %46 = load i32, ptr %7, align 4
  store i32 %46, ptr %15, align 4
  %47 = load i32, ptr %8, align 4
  store i32 %47, ptr %16, align 4
  br label %48

48:                                               ; preds = %124, %45
  call void @llvm.lifetime.start.p0(i64 8, ptr %19) #10
  call void @llvm.lifetime.start.p0(i64 8, ptr %20) #10
  call void @llvm.lifetime.start.p0(i64 8, ptr %21) #10
  call void @llvm.lifetime.start.p0(i64 8, ptr %22) #10
  call void @llvm.lifetime.start.p0(i64 2, ptr %23) #10
  %49 = load i32, ptr %16, align 4
  %50 = icmp ne i32 %49, 0
  br i1 %50, label %51, label %69

51:                                               ; preds = %48
  %52 = load i32, ptr %16, align 4
  %53 = load ptr, ptr %10, align 8
  %54 = getelementptr inbounds nuw %struct.GISTBuildBuffers, ptr %53, i32 0, i32 8
  %55 = load i32, ptr %54, align 8
  %56 = srem i32 %52, %55
  %57 = icmp eq i32 %56, 0
  br i1 %57, label %58, label %69

58:                                               ; preds = %51
  %59 = load i32, ptr %16, align 4
  %60 = load ptr, ptr %10, align 8
  %61 = getelementptr inbounds nuw %struct.GISTBuildBuffers, ptr %60, i32 0, i32 15
  %62 = load i32, ptr %61, align 8
  %63 = icmp ne i32 %59, %62
  br i1 %63, label %64, label %69

64:                                               ; preds = %58
  %65 = load i32, ptr %16, align 4
  %66 = load i32, ptr %8, align 4
  %67 = icmp ne i32 %65, %66
  br i1 %67, label %68, label %69

68:                                               ; preds = %64
  store i32 4, ptr %24, align 4
  br label %122

69:                                               ; preds = %64, %58, %51, %48
  %70 = load i32, ptr %16, align 4
  %71 = icmp eq i32 %70, 0
  br i1 %71, label %72, label %73

72:                                               ; preds = %69
  store i32 4, ptr %24, align 4
  br label %122

73:                                               ; preds = %69
  %74 = load ptr, ptr %11, align 8
  %75 = load i32, ptr %15, align 4
  %76 = call i32 @ReadBuffer(ptr noundef %74, i32 noundef %75)
  store i32 %76, ptr %13, align 4
  %77 = load i32, ptr %13, align 4
  call void @LockBuffer(i32 noundef %77, i32 noundef 2)
  %78 = load i32, ptr %13, align 4
  %79 = call ptr @BufferGetPage(i32 noundef %78)
  store ptr %79, ptr %22, align 8
  %80 = load ptr, ptr %11, align 8
  %81 = load ptr, ptr %22, align 8
  %82 = load ptr, ptr %6, align 8
  %83 = load ptr, ptr %9, align 8
  %84 = call zeroext i16 @gistchoose(ptr noundef %80, ptr noundef %81, ptr noundef %82, ptr noundef %83)
  store i16 %84, ptr %23, align 2
  %85 = load ptr, ptr %22, align 8
  %86 = load i16, ptr %23, align 2
  %87 = call ptr @PageGetItemId(ptr noundef %85, i16 noundef zeroext %86)
  store ptr %87, ptr %19, align 8
  %88 = load ptr, ptr %22, align 8
  %89 = load ptr, ptr %19, align 8
  %90 = call ptr @PageGetItem(ptr noundef %88, ptr noundef %89)
  store ptr %90, ptr %20, align 8
  %91 = load ptr, ptr %20, align 8
  %92 = getelementptr inbounds nuw %struct.IndexTupleData, ptr %91, i32 0, i32 0
  %93 = call i32 @ItemPointerGetBlockNumber(ptr noundef %92)
  store i32 %93, ptr %12, align 4
  %94 = load i32, ptr %16, align 4
  %95 = icmp sgt i32 %94, 1
  br i1 %95, label %96, label %100

96:                                               ; preds = %73
  %97 = load ptr, ptr %5, align 8
  %98 = load i32, ptr %12, align 4
  %99 = load i32, ptr %15, align 4
  call void @gistMemorizeParent(ptr noundef %97, i32 noundef %98, i32 noundef %99)
  br label %100

100:                                              ; preds = %96, %73
  %101 = load ptr, ptr %11, align 8
  %102 = load ptr, ptr %20, align 8
  %103 = load ptr, ptr %6, align 8
  %104 = load ptr, ptr %9, align 8
  %105 = call ptr @gistgetadjusted(ptr noundef %101, ptr noundef %102, ptr noundef %103, ptr noundef %104)
  store ptr %105, ptr %21, align 8
  %106 = load ptr, ptr %21, align 8
  %107 = icmp ne ptr %106, null
  br i1 %107, label %108, label %114

108:                                              ; preds = %100
  %109 = load ptr, ptr %5, align 8
  %110 = load i32, ptr %13, align 4
  %111 = load i32, ptr %16, align 4
  %112 = load i16, ptr %23, align 2
  %113 = call i32 @gistbufferinginserttuples(ptr noundef %109, i32 noundef %110, i32 noundef %111, ptr noundef %21, i32 noundef 1, i16 noundef zeroext %112, i32 noundef -1, i16 noundef zeroext 0)
  store i32 %113, ptr %15, align 4
  br label %116

114:                                              ; preds = %100
  %115 = load i32, ptr %13, align 4
  call void @UnlockReleaseBuffer(i32 noundef %115)
  br label %116

116:                                              ; preds = %114, %108
  %117 = load i32, ptr %15, align 4
  store i32 %117, ptr %18, align 4
  %118 = load i32, ptr %12, align 4
  store i32 %118, ptr %15, align 4
  %119 = load i16, ptr %23, align 2
  store i16 %119, ptr %17, align 2
  %120 = load i32, ptr %16, align 4
  %121 = add i32 %120, -1
  store i32 %121, ptr %16, align 4
  store i32 0, ptr %24, align 4
  br label %122

122:                                              ; preds = %116, %72, %68
  call void @llvm.lifetime.end.p0(i64 2, ptr %23) #10
  call void @llvm.lifetime.end.p0(i64 8, ptr %22) #10
  call void @llvm.lifetime.end.p0(i64 8, ptr %21) #10
  call void @llvm.lifetime.end.p0(i64 8, ptr %20) #10
  call void @llvm.lifetime.end.p0(i64 8, ptr %19) #10
  %123 = load i32, ptr %24, align 4
  switch i32 %123, label %173 [
    i32 0, label %124
    i32 4, label %125
  ]

124:                                              ; preds = %122
  br label %48

125:                                              ; preds = %122
  %126 = load i32, ptr %16, align 4
  %127 = icmp ne i32 %126, 0
  br i1 %127, label %128, label %159

128:                                              ; preds = %125
  %129 = load i32, ptr %16, align 4
  %130 = load ptr, ptr %10, align 8
  %131 = getelementptr inbounds nuw %struct.GISTBuildBuffers, ptr %130, i32 0, i32 8
  %132 = load i32, ptr %131, align 8
  %133 = srem i32 %129, %132
  %134 = icmp eq i32 %133, 0
  br i1 %134, label %135, label %159

135:                                              ; preds = %128
  %136 = load i32, ptr %16, align 4
  %137 = load ptr, ptr %10, align 8
  %138 = getelementptr inbounds nuw %struct.GISTBuildBuffers, ptr %137, i32 0, i32 15
  %139 = load i32, ptr %138, align 8
  %140 = icmp ne i32 %136, %139
  br i1 %140, label %141, label %159

141:                                              ; preds = %135
  call void @llvm.lifetime.start.p0(i64 8, ptr %25) #10
  %142 = load ptr, ptr %10, align 8
  %143 = load ptr, ptr %9, align 8
  %144 = load i32, ptr %15, align 4
  %145 = load i32, ptr %16, align 4
  %146 = call ptr @gistGetNodeBuffer(ptr noundef %142, ptr noundef %143, i32 noundef %144, i32 noundef %145)
  store ptr %146, ptr %25, align 8
  %147 = load ptr, ptr %10, align 8
  %148 = load ptr, ptr %25, align 8
  %149 = load ptr, ptr %6, align 8
  call void @gistPushItupToNodeBuffer(ptr noundef %147, ptr noundef %148, ptr noundef %149)
  %150 = load ptr, ptr %25, align 8
  %151 = getelementptr inbounds nuw %struct.GISTNodeBuffer, ptr %150, i32 0, i32 1
  %152 = load i32, ptr %151, align 4
  %153 = load ptr, ptr %10, align 8
  %154 = getelementptr inbounds nuw %struct.GISTBuildBuffers, ptr %153, i32 0, i32 9
  %155 = load i32, ptr %154, align 4
  %156 = icmp sgt i32 %152, %155
  br i1 %156, label %157, label %158

157:                                              ; preds = %141
  store i8 1, ptr %14, align 1
  br label %158

158:                                              ; preds = %157, %141
  call void @llvm.lifetime.end.p0(i64 8, ptr %25) #10
  br label %170

159:                                              ; preds = %135, %128, %125
  %160 = load ptr, ptr %11, align 8
  %161 = load i32, ptr %15, align 4
  %162 = call i32 @ReadBuffer(ptr noundef %160, i32 noundef %161)
  store i32 %162, ptr %13, align 4
  %163 = load i32, ptr %13, align 4
  call void @LockBuffer(i32 noundef %163, i32 noundef 2)
  %164 = load ptr, ptr %5, align 8
  %165 = load i32, ptr %13, align 4
  %166 = load i32, ptr %16, align 4
  %167 = load i32, ptr %18, align 4
  %168 = load i16, ptr %17, align 2
  %169 = call i32 @gistbufferinginserttuples(ptr noundef %164, i32 noundef %165, i32 noundef %166, ptr noundef %6, i32 noundef 1, i16 noundef zeroext 0, i32 noundef %167, i16 noundef zeroext %168)
  br label %170

170:                                              ; preds = %159, %158
  %171 = load i8, ptr %14, align 1, !range !6, !noundef !7
  %172 = trunc i8 %171 to i1
  store i32 1, ptr %24, align 4
  call void @llvm.lifetime.end.p0(i64 4, ptr %18) #10
  call void @llvm.lifetime.end.p0(i64 2, ptr %17) #10
  call void @llvm.lifetime.end.p0(i64 4, ptr %16) #10
  call void @llvm.lifetime.end.p0(i64 4, ptr %15) #10
  call void @llvm.lifetime.end.p0(i64 1, ptr %14) #10
  call void @llvm.lifetime.end.p0(i64 4, ptr %13) #10
  call void @llvm.lifetime.end.p0(i64 4, ptr %12) #10
  call void @llvm.lifetime.end.p0(i64 8, ptr %11) #10
  call void @llvm.lifetime.end.p0(i64 8, ptr %10) #10
  call void @llvm.lifetime.end.p0(i64 8, ptr %9) #10
  ret i1 %172

173:                                              ; preds = %122
  unreachable
}