; Function Attrs: nounwind uwtable
define internal fastcc zeroext i1 @gistProcessItup(ptr noundef readonly captures(none) %0, ptr noundef %1, i32 noundef %2, i32 noundef %3) unnamed_addr #0 {
  %5 = alloca i32, align 4
  %6 = alloca i8, align 1
  %7 = alloca ptr, align 8
  %8 = alloca ptr, align 8
  store ptr %1, ptr %7, align 8
  %9 = getelementptr inbounds nuw i8, ptr %0, i64 16
  %10 = load ptr, ptr %9, align 8
  %11 = getelementptr inbounds nuw i8, ptr %0, i64 56
  %12 = load ptr, ptr %11, align 8
  %13 = load ptr, ptr %0, align 8
  %14 = load volatile i32, ptr @InterruptPending, align 4
  %.not = icmp eq i32 %14, 0
  br i1 %.not, label %16, label %15, !prof !16

15:                                               ; preds = %4
  tail call void @ProcessInterrupts() #10
  br label %16

16:                                               ; preds = %15, %4
  call void @llvm.lifetime.start.p0(i64 8, ptr nonnull %8) #10
  %cond102 = icmp eq i32 %3, 0
  br i1 %cond102, label %.loopexit, label %.lr.ph

.lr.ph:                                           ; preds = %16
  %17 = getelementptr inbounds nuw i8, ptr %12, i64 56
  %18 = getelementptr inbounds nuw i8, ptr %12, i64 96
  %19 = getelementptr i8, ptr %0, i64 64
  br label %20

20:                                               ; preds = %.lr.ph, %64
  %.064106 = phi i32 [ %2, %.lr.ph ], [ %54, %64 ]
  %.066105 = phi i32 [ %3, %.lr.ph ], [ %65, %64 ]
  %21 = load i32, ptr %17, align 8
  %22 = srem i32 %.066105, %21
  %23 = icmp eq i32 %22, 0
  br i1 %23, label %24, label %26

24:                                               ; preds = %20
  %25 = load i32, ptr %18, align 8
  %.not73 = icmp eq i32 %.066105, %25
  %.not74 = icmp eq i32 %.066105, %3
  %or.cond = or i1 %.not74, %.not73
  br i1 %or.cond, label %26, label %66

26:                                               ; preds = %20, %24
  %27 = call i32 @ReadBuffer(ptr noundef %13, i32 noundef %.064106) #10
  call void @LockBuffer(i32 noundef %27, i32 noundef 2) #10
  %28 = icmp slt i32 %27, 0
  br i1 %28, label %29, label %35

29:                                               ; preds = %26
  %30 = load ptr, ptr @LocalBufferBlockPointers, align 8
  %31 = xor i32 %27, -1
  %32 = zext nneg i32 %31 to i64
  %33 = getelementptr inbounds nuw ptr, ptr %30, i64 %32
  %34 = load ptr, ptr %33, align 8
  br label %BufferGetPage.exit

35:                                               ; preds = %26
  %36 = load ptr, ptr @BufferBlocks, align 8
  %37 = add nsw i32 %27, -1
  %38 = sext i32 %37 to i64
  %39 = shl nsw i64 %38, 13
  %40 = getelementptr inbounds nuw i8, ptr %36, i64 %39
  br label %BufferGetPage.exit

BufferGetPage.exit:                               ; preds = %29, %35
  %.0.i.i = phi ptr [ %34, %29 ], [ %40, %35 ]
  %41 = load ptr, ptr %7, align 8
  %42 = call zeroext i16 @gistchoose(ptr noundef %13, ptr noundef %.0.i.i, ptr noundef %41, ptr noundef %10) #10
  %43 = getelementptr inbounds nuw i8, ptr %.0.i.i, i64 24
  %44 = zext i16 %42 to i64
  %45 = add nsw i64 %44, -1
  %46 = getelementptr inbounds [0 x %struct.ItemIdData], ptr %43, i64 0, i64 %45
  %.val = load i32, ptr %46, align 4
  %47 = and i32 %.val, 32767
  %48 = zext nneg i32 %47 to i64
  %49 = getelementptr inbounds nuw i8, ptr %.0.i.i, i64 %48
  %.val78 = load i16, ptr %49, align 2
  %50 = getelementptr i8, ptr %49, i64 2
  %.val79 = load i16, ptr %50, align 2
  %51 = zext i16 %.val78 to i32
  %52 = shl nuw i32 %51, 16
  %53 = zext i16 %.val79 to i32
  %54 = or disjoint i32 %52, %53
  %55 = icmp sgt i32 %.066105, 1
  br i1 %55, label %56, label %59

56:                                               ; preds = %BufferGetPage.exit
  %.val80 = load ptr, ptr %19, align 8
  call void @llvm.lifetime.start.p0(i64 4, ptr nonnull %5)
  store i32 %54, ptr %5, align 4
  call void @llvm.lifetime.start.p0(i64 1, ptr nonnull %6) #10
  %57 = call ptr @hash_search(ptr noundef %.val80, ptr noundef nonnull %5, i32 noundef 1, ptr noundef nonnull %6) #10
  %58 = getelementptr inbounds nuw i8, ptr %57, i64 4
  store i32 %.064106, ptr %58, align 4
  call void @llvm.lifetime.end.p0(i64 1, ptr nonnull %6) #10
  call void @llvm.lifetime.end.p0(i64 4, ptr nonnull %5)
  br label %59

59:                                               ; preds = %56, %BufferGetPage.exit
  %60 = call ptr @gistgetadjusted(ptr noundef %13, ptr noundef nonnull %49, ptr noundef %41, ptr noundef %10) #10
  store ptr %60, ptr %8, align 8
  %.not75 = icmp eq ptr %60, null
  br i1 %.not75, label %63, label %61

61:                                               ; preds = %59
  %62 = call fastcc i32 @gistbufferinginserttuples(ptr noundef nonnull %0, i32 noundef %27, i32 noundef %.066105, ptr noundef nonnull %8, i32 noundef 1, i16 noundef zeroext %42, i32 noundef -1, i16 noundef zeroext 0)
  br label %64

63:                                               ; preds = %59
  call void @UnlockReleaseBuffer(i32 noundef %27) #10
  br label %64

64:                                               ; preds = %61, %63
  %.2 = phi i32 [ %62, %61 ], [ %.064106, %63 ]
  %65 = add i32 %.066105, -1
  call void @llvm.lifetime.end.p0(i64 8, ptr nonnull %8) #10
  call void @llvm.lifetime.start.p0(i64 8, ptr nonnull %8) #10
  %cond = icmp eq i32 %65, 0
  br i1 %cond, label %.loopexit, label %20

66:                                               ; preds = %24
  call void @llvm.lifetime.end.p0(i64 8, ptr nonnull %8) #10
  %67 = call ptr @gistGetNodeBuffer(ptr noundef nonnull %12, ptr noundef %10, i32 noundef %.064106, i32 noundef %.066105) #10
  %68 = load ptr, ptr %7, align 8
  call void @gistPushItupToNodeBuffer(ptr noundef nonnull %12, ptr noundef %67, ptr noundef %68) #10
  %69 = getelementptr inbounds nuw i8, ptr %67, i64 4
  %70 = load i32, ptr %69, align 4
  %71 = getelementptr inbounds nuw i8, ptr %12, i64 60
  %72 = load i32, ptr %71, align 4
  %73 = icmp sgt i32 %70, %72
  br label %76

.loopexit:                                        ; preds = %64, %16
  %.070.lcssa = phi i32 [ -1, %16 ], [ %.2, %64 ]
  %.068.lcssa = phi i16 [ 0, %16 ], [ %42, %64 ]
  %.064.lcssa = phi i32 [ %2, %16 ], [ %54, %64 ]
  call void @llvm.lifetime.end.p0(i64 8, ptr nonnull %8) #10
  %74 = call i32 @ReadBuffer(ptr noundef %13, i32 noundef %.064.lcssa) #10
  call void @LockBuffer(i32 noundef %74, i32 noundef 2) #10
  %75 = call fastcc i32 @gistbufferinginserttuples(ptr noundef nonnull %0, i32 noundef %74, i32 noundef 0, ptr noundef nonnull %7, i32 noundef 1, i16 noundef zeroext 0, i32 noundef %.070.lcssa, i16 noundef zeroext %.068.lcssa)
  br label %76

76:                                               ; preds = %.loopexit, %66
  %.1 = phi i1 [ %73, %66 ], [ false, %.loopexit ]
  ret i1 %.1
}